; Function Attrs: mustprogress uwtable
define void @_ZN3gmx10EnergyData7Element19saveCheckpointStateESt8optionalINS_14CheckpointDataILNS_23CheckpointDataOperationE1EEEEPK9t_commrec(ptr noundef nonnull align 8 dereferenceable(120) %0, ptr noundef byval(%"class.std::optional") align 8 %1, ptr noundef %2) unnamed_addr #0 align 2 {
  %4 = getelementptr inbounds nuw i8, ptr %2, i64 60
  %5 = load i32, ptr %4, align 4, !tbaa !43
  %6 = icmp eq i32 %5, 0
  br i1 %6, label %11, label %7

7:                                                ; preds = %3
  %8 = getelementptr inbounds nuw i8, ptr %2, i64 56
  %9 = load i32, ptr %8, align 8, !tbaa !61
  %10 = icmp sgt i32 %9, 1
  br i1 %10, label %._crit_edge, label %11

._crit_edge:                                      ; preds = %7
  %.phi.trans.insert = getelementptr inbounds nuw i8, ptr %0, i64 40
  %.pre = load ptr, ptr %.phi.trans.insert, align 8, !tbaa !62
  br label %15

11:                                               ; preds = %7, %3
  %12 = getelementptr inbounds nuw i8, ptr %0, i64 40
  %13 = load ptr, ptr %12, align 8, !tbaa !62
  %14 = getelementptr inbounds nuw i8, ptr %13, i64 16
  br label %15

15:                                               ; preds = %._crit_edge, %11
  %16 = phi ptr [ %13, %11 ], [ %.pre, %._crit_edge ]
  %17 = phi ptr [ %14, %11 ], [ null, %._crit_edge ]
  %18 = getelementptr inbounds nuw i8, ptr %0, i64 40
  %19 = getelementptr inbounds nuw i8, ptr %16, i64 480
  %20 = load ptr, ptr %19, align 8, !tbaa !63
  %21 = getelementptr inbounds nuw i8, ptr %16, i64 368
  %22 = load i8, ptr %21, align 8, !tbaa !107, !range !21, !noundef !22
  %23 = trunc nuw i8 %22 to i1
  tail call void @_Z16update_ekinstateP11ekinstate_tPK14gmx_ekindata_tbPK9t_commrec(ptr noundef %17, ptr noundef %20, i1 noundef zeroext %23, ptr noundef nonnull %2)
  %24 = load i32, ptr %4, align 4, !tbaa !43
  %25 = icmp eq i32 %24, 0
  br i1 %25, label %30, label %26

26:                                               ; preds = %15
  %27 = getelementptr inbounds nuw i8, ptr %2, i64 56
  %28 = load i32, ptr %27, align 8, !tbaa !61
  %29 = icmp sgt i32 %28, 1
  br i1 %29, label %42, label %30

30:                                               ; preds = %26, %15
  %31 = load ptr, ptr %18, align 8, !tbaa !62
  %32 = getelementptr inbounds nuw i8, ptr %31, i64 16
  store i8 1, ptr %32, align 8, !tbaa !108
  %33 = getelementptr inbounds nuw i8, ptr %31, i64 8
  %34 = load ptr, ptr %33, align 8, !tbaa !109
  %35 = getelementptr inbounds nuw i8, ptr %31, i64 528
  %36 = load ptr, ptr %35, align 8, !tbaa !110
  %37 = load ptr, ptr %36, align 8, !tbaa !111
  tail call void @_ZNK3gmx12EnergyOutput17fillEnergyHistoryEP15energyhistory_t(ptr noundef nonnull align 8 dereferenceable(392) %34, ptr noundef %37)
  %38 = getelementptr inbounds nuw i8, ptr %1, i64 16
  %39 = load i8, ptr %38, align 8, !tbaa !113, !range !21, !noundef !22
  %40 = trunc nuw i8 %39 to i1
  br i1 %40, label %_ZNRSt8optionalIN3gmx14CheckpointDataILNS0_23CheckpointDataOperationE1EEEE5valueEv.exit, label %41

41:                                               ; preds = %30
  tail call void @_ZSt27__throw_bad_optional_accessv() #30
  unreachable

_ZNRSt8optionalIN3gmx14CheckpointDataILNS0_23CheckpointDataOperationE1EEEE5valueEv.exit: ; preds = %30
  call void @_ZN3gmx10EnergyData7Element16doCheckpointDataILNS_23CheckpointDataOperationE1EEEvPNS_14CheckpointDataIXT_EEE(ptr noundef nonnull align 8 dereferenceable(120) %0, ptr noundef nonnull %1)
  br label %42

42:                                               ; preds = %_ZNRSt8optionalIN3gmx14CheckpointDataILNS0_23CheckpointDataOperationE1EEEE5valueEv.exit, %26
  ret void
}